; Function Attrs: mustprogress uwtable
define hidden noundef nonnull ptr @_ZN4cvc58internal6theory11quantifiers21mkTermTupleEnumeratorENS0_12NodeTemplateILb1EEEPKNS2_22TermTupleEnumeratorEnvERNS2_16QuantifiersStateE(ptr noundef readonly captures(none) %0, ptr noundef %1, ptr noundef nonnull align 8 dereferenceable(376) %2) local_unnamed_addr #3 personality ptr @__gxx_personality_v0 {
  %4 = alloca %"class.cvc5::internal::NodeTemplate", align 8
  %5 = tail call noalias noundef nonnull dereferenceable(232) ptr @_Znwm(i64 noundef 232) #26
  %6 = load ptr, ptr %0, align 8, !tbaa !33
  store ptr %6, ptr %4, align 8, !tbaa !33
  %7 = load i64, ptr %6, align 8
  %8 = lshr i64 %7, 40
  %9 = trunc nuw nsw i64 %8 to i32
  %10 = and i32 %9, 1048575
  %11 = icmp samesign ult i32 %10, 1048574
  br i1 %11, label %12, label %17, !prof !35

12:                                               ; preds = %3
  %13 = add i64 %7, 1099511627776
  %14 = and i64 %13, 1152920405095219200
  %15 = and i64 %7, -1152920405095219201
  %16 = or disjoint i64 %14, %15
  store i64 %16, ptr %6, align 8
  br label %_ZN4cvc58internal12NodeTemplateILb1EEC2ERKS2_.exit

17:                                               ; preds = %3
  %18 = icmp eq i32 %10, 1048574
  br i1 %18, label %19, label %_ZN4cvc58internal12NodeTemplateILb1EEC2ERKS2_.exit, !prof !36

19:                                               ; preds = %17
  %20 = or i64 %7, 1152920405095219200
  store i64 %20, ptr %6, align 8
  invoke void @_ZN4cvc58internal4expr9NodeValue20markRefCountMaxedOutEv(ptr noundef nonnull align 8 dereferenceable(24) %6)
          to label %_ZN4cvc58internal12NodeTemplateILb1EEC2ERKS2_.exit unwind label %35

_ZN4cvc58internal12NodeTemplateILb1EEC2ERKS2_.exit: ; preds = %17, %12, %19
  invoke void @_ZN4cvc58internal6theory11quantifiers24TermTupleEnumeratorBasicC2ENS0_12NodeTemplateILb1EEEPKNS2_22TermTupleEnumeratorEnvERNS2_16QuantifiersStateE(ptr noundef nonnull align 8 dereferenceable(232) %5, ptr noundef nonnull %4, ptr noundef %1, ptr noundef nonnull align 8 dereferenceable(376) %2)
          to label %21 unwind label %37

21:                                               ; preds = %_ZN4cvc58internal12NodeTemplateILb1EEC2ERKS2_.exit
  %22 = load ptr, ptr %4, align 8, !tbaa !33
  %23 = load i64, ptr %22, align 8
  %24 = and i64 %23, 1152920405095219200
  %.not.i.i = icmp eq i64 %24, 1152920405095219200
  br i1 %.not.i.i, label %_ZN4cvc58internal12NodeTemplateILb1EED2Ev.exit, label %25, !prof !36

25:                                               ; preds = %21
  %26 = add i64 %23, 1152920405095219200
  %27 = and i64 %26, 1152920405095219200
  %28 = and i64 %23, -1152920405095219201
  %29 = or disjoint i64 %27, %28
  store i64 %29, ptr %22, align 8
  %30 = icmp eq i64 %27, 0
  br i1 %30, label %31, label %_ZN4cvc58internal12NodeTemplateILb1EED2Ev.exit, !prof !36

31:                                               ; preds = %25
  invoke void @_ZN4cvc58internal4expr9NodeValue15markForDeletionEv(ptr noundef nonnull align 8 dereferenceable(24) %22)
          to label %_ZN4cvc58internal12NodeTemplateILb1EED2Ev.exit unwind label %32

32:                                               ; preds = %31
  %33 = landingpad { ptr, i32 }
          catch ptr null
  %34 = extractvalue { ptr, i32 } %33, 0
  call void @__clang_call_terminate(ptr %34) #24
  unreachable

_ZN4cvc58internal12NodeTemplateILb1EED2Ev.exit:   ; preds = %21, %25, %31
  ret ptr %5

35:                                               ; preds = %19
  %36 = landingpad { ptr, i32 }
          cleanup
  br label %39

37:                                               ; preds = %_ZN4cvc58internal12NodeTemplateILb1EEC2ERKS2_.exit
  %38 = landingpad { ptr, i32 }
          cleanup
  call void @_ZN4cvc58internal12NodeTemplateILb1EED2Ev(ptr noundef nonnull align 8 dereferenceable(8) %4) #23
  br label %39

39:                                               ; preds = %35, %37
  %.pn = phi { ptr, i32 } [ %38, %37 ], [ %36, %35 ]
  call void @_ZdlPvm(ptr noundef nonnull %5, i64 noundef 232) #27
  resume { ptr, i32 } %.pn
}